target datalayout = "e-m:e-p270:32:32-p271:32:32-p272:64:64-i64:64-i128:128-f80:128-n8:16:32:64-S128"
target triple = "x86_64-pc-linux-gnu"

%struct.PutBitContext = type { i32, i32, ptr, ptr, ptr }

@.str.10 = private unnamed_addr constant [30 x i8] c"Assertion %s failed at %s:%d\0A\00", align 1
@.str.13 = private unnamed_addr constant [43 x i8] c"Internal error, put_bits buffer too small\0A\00", align 1
@.str.14 = private unnamed_addr constant [24 x i8] c"s->buf_ptr < s->buf_end\00", align 1
@.str.15 = private unnamed_addr constant [24 x i8] c"./libavcodec/put_bits.h\00", align 1

; Function Attrs: alwaysinline nounwind willreturn memory(none) uwtable
define internal i32 @av_bswap32(i32 noundef %0) #7 {
  %2 = alloca i32, align 4
  store i32 %0, ptr %2, align 4, !tbaa !37
  %3 = load i32, ptr %2, align 4, !tbaa !37
  %4 = shl i32 %3, 8
  %5 = and i32 %4, 65280
  %6 = load i32, ptr %2, align 4, !tbaa !37
  %7 = lshr i32 %6, 8
  %8 = and i32 %7, 255
  %9 = or i32 %5, %8
  %10 = shl i32 %9, 16
  %11 = load i32, ptr %2, align 4, !tbaa !37
  %12 = lshr i32 %11, 16
  %13 = shl i32 %12, 8
  %14 = and i32 %13, 65280
  %15 = load i32, ptr %2, align 4, !tbaa !37
  %16 = lshr i32 %15, 16
  %17 = lshr i32 %16, 8
  %18 = and i32 %17, 255
  %19 = or i32 %14, %18
  %20 = or i32 %10, %19
  ret i32 %20
}

; Function Attrs: inlinehint nounwind uwtable
define internal void @put_bits_no_assert(ptr noundef %0, i32 noundef %1, i32 noundef %2) #5 {
  %4 = alloca ptr, align 8
  %5 = alloca i32, align 4
  %6 = alloca i32, align 4
  %7 = alloca i32, align 4
  %8 = alloca i32, align 4
  store ptr %0, ptr %4, align 8, !tbaa !82
  store i32 %1, ptr %5, align 4, !tbaa !37
  store i32 %2, ptr %6, align 4, !tbaa !37
  call void @llvm.lifetime.start.p0(i64 4, ptr %7) #8
  call void @llvm.lifetime.start.p0(i64 4, ptr %8) #8
  %9 = load ptr, ptr %4, align 8, !tbaa !82
  %10 = getelementptr inbounds nuw %struct.PutBitContext, ptr %9, i32 0, i32 0
  %11 = load i32, ptr %10, align 8, !tbaa !90
  store i32 %11, ptr %7, align 4, !tbaa !37
  %12 = load ptr, ptr %4, align 8, !tbaa !82
  %13 = getelementptr inbounds nuw %struct.PutBitContext, ptr %12, i32 0, i32 1
  %14 = load i32, ptr %13, align 4, !tbaa !89
  store i32 %14, ptr %8, align 4, !tbaa !37
  %15 = load i32, ptr %5, align 4, !tbaa !37
  %16 = load i32, ptr %8, align 4, !tbaa !37
  %17 = icmp slt i32 %15, %16
  br i1 %17, label %18, label %27

18:                                               ; preds = %3
  %19 = load i32, ptr %7, align 4, !tbaa !37
  %20 = load i32, ptr %5, align 4, !tbaa !37
  %21 = shl i32 %19, %20
  %22 = load i32, ptr %6, align 4, !tbaa !37
  %23 = or i32 %21, %22
  store i32 %23, ptr %7, align 4, !tbaa !37
  %24 = load i32, ptr %5, align 4, !tbaa !37
  %25 = load i32, ptr %8, align 4, !tbaa !37
  %26 = sub nsw i32 %25, %24
  store i32 %26, ptr %8, align 4, !tbaa !37
  br label %65

27:                                               ; preds = %3
  %28 = load i32, ptr %8, align 4, !tbaa !37
  %29 = load i32, ptr %7, align 4, !tbaa !37
  %30 = shl i32 %29, %28
  store i32 %30, ptr %7, align 4, !tbaa !37
  %31 = load i32, ptr %6, align 4, !tbaa !37
  %32 = load i32, ptr %5, align 4, !tbaa !37
  %33 = load i32, ptr %8, align 4, !tbaa !37
  %34 = sub nsw i32 %32, %33
  %35 = lshr i32 %31, %34
  %36 = load i32, ptr %7, align 4, !tbaa !37
  %37 = or i32 %36, %35
  store i32 %37, ptr %7, align 4, !tbaa !37
  %38 = load ptr, ptr %4, align 8, !tbaa !82
  %39 = getelementptr inbounds nuw %struct.PutBitContext, ptr %38, i32 0, i32 4
  %40 = load ptr, ptr %39, align 8, !tbaa !87
  %41 = load ptr, ptr %4, align 8, !tbaa !82
  %42 = getelementptr inbounds nuw %struct.PutBitContext, ptr %41, i32 0, i32 3
  %43 = load ptr, ptr %42, align 8, !tbaa !88
  %44 = ptrtoint ptr %40 to i64
  %45 = ptrtoint ptr %43 to i64
  %46 = sub i64 %44, %45
  %47 = icmp uge i64 %46, 4
  br i1 %47, label %48, label %58

48:                                               ; preds = %27
  %49 = load i32, ptr %7, align 4, !tbaa !37
  %50 = call i32 @av_bswap32(i32 noundef %49) #11
  %51 = load ptr, ptr %4, align 8, !tbaa !82
  %52 = getelementptr inbounds nuw %struct.PutBitContext, ptr %51, i32 0, i32 3
  %53 = load ptr, ptr %52, align 8, !tbaa !88
  store i32 %50, ptr %53, align 1, !tbaa !91
  %54 = load ptr, ptr %4, align 8, !tbaa !82
  %55 = getelementptr inbounds nuw %struct.PutBitContext, ptr %54, i32 0, i32 3
  %56 = load ptr, ptr %55, align 8, !tbaa !88
  %57 = getelementptr inbounds nuw i8, ptr %56, i64 4
  store ptr %57, ptr %55, align 8, !tbaa !88
  br label %59

58:                                               ; preds = %27
  call void (ptr, i32, ptr, ...) @av_log(ptr noundef null, i32 noundef 16, ptr noundef @.str.13)
  br label %59

59:                                               ; preds = %58, %48
  %60 = load i32, ptr %5, align 4, !tbaa !37
  %61 = sub nsw i32 32, %60
  %62 = load i32, ptr %8, align 4, !tbaa !37
  %63 = add nsw i32 %62, %61
  store i32 %63, ptr %8, align 4, !tbaa !37
  %64 = load i32, ptr %6, align 4, !tbaa !37
  store i32 %64, ptr %7, align 4, !tbaa !37
  br label %65

65:                                               ; preds = %59, %18
  %66 = load i32, ptr %7, align 4, !tbaa !37
  %67 = load ptr, ptr %4, align 8, !tbaa !82
  %68 = getelementptr inbounds nuw %struct.PutBitContext, ptr %67, i32 0, i32 0
  store i32 %66, ptr %68, align 8, !tbaa !90
  %69 = load i32, ptr %8, align 4, !tbaa !37
  %70 = load ptr, ptr %4, align 8, !tbaa !82
  %71 = getelementptr inbounds nuw %struct.PutBitContext, ptr %70, i32 0, i32 1
  store i32 %69, ptr %71, align 4, !tbaa !89
  call void @llvm.lifetime.end.p0(i64 4, ptr %8) #8
  call void @llvm.lifetime.end.p0(i64 4, ptr %7) #8
  ret void
}

; Function Attrs: inlinehint nounwind uwtable
define internal i32 @put_bytes_output(ptr noundef %0) #5 {
  %2 = alloca ptr, align 8
  store ptr %0, ptr %2, align 8, !tbaa !82
  %3 = load ptr, ptr %2, align 8, !tbaa !82
  %4 = getelementptr inbounds nuw %struct.PutBitContext, ptr %3, i32 0, i32 3
  %5 = load ptr, ptr %4, align 8, !tbaa !88
  %6 = load ptr, ptr %2, align 8, !tbaa !82
  %7 = getelementptr inbounds nuw %struct.PutBitContext, ptr %6, i32 0, i32 2
  %8 = load ptr, ptr %7, align 8, !tbaa !85
  %9 = ptrtoint ptr %5 to i64
  %10 = ptrtoint ptr %8 to i64
  %11 = sub i64 %9, %10
  %12 = trunc i64 %11 to i32
  ret i32 %12
}

; Function Attrs: inlinehint nounwind uwtable
define internal void @flush_put_bits(ptr noundef %0) #5 {
  %2 = alloca ptr, align 8
  store ptr %0, ptr %2, align 8, !tbaa !82
  %3 = load ptr, ptr %2, align 8, !tbaa !82
  %4 = getelementptr inbounds nuw %struct.PutBitContext, ptr %3, i32 0, i32 1
  %5 = load i32, ptr %4, align 4, !tbaa !89
  %6 = icmp slt i32 %5, 32
  br i1 %6, label %7, label %15

7:                                                ; preds = %1
  %8 = load ptr, ptr %2, align 8, !tbaa !82
  %9 = getelementptr inbounds nuw %struct.PutBitContext, ptr %8, i32 0, i32 1
  %10 = load i32, ptr %9, align 4, !tbaa !89
  %11 = load ptr, ptr %2, align 8, !tbaa !82
  %12 = getelementptr inbounds nuw %struct.PutBitContext, ptr %11, i32 0, i32 0
  %13 = load i32, ptr %12, align 8, !tbaa !90
  %14 = shl i32 %13, %10
  store i32 %14, ptr %12, align 8, !tbaa !90
  br label %15

15:                                               ; preds = %7, %1
  br label %16

16:                                               ; preds = %32, %15
  %17 = load ptr, ptr %2, align 8, !tbaa !82
  %18 = getelementptr inbounds nuw %struct.PutBitContext, ptr %17, i32 0, i32 1
  %19 = load i32, ptr %18, align 4, !tbaa !89
  %20 = icmp slt i32 %19, 32
  br i1 %20, label %21, label %50

21:                                               ; preds = %16
  br label %22

22:                                               ; preds = %21
  %23 = load ptr, ptr %2, align 8, !tbaa !82
  %24 = getelementptr inbounds nuw %struct.PutBitContext, ptr %23, i32 0, i32 3
  %25 = load ptr, ptr %24, align 8, !tbaa !88
  %26 = load ptr, ptr %2, align 8, !tbaa !82
  %27 = getelementptr inbounds nuw %struct.PutBitContext, ptr %26, i32 0, i32 4
  %28 = load ptr, ptr %27, align 8, !tbaa !87
  %29 = icmp ult ptr %25, %28
  br i1 %29, label %31, label %30

30:                                               ; preds = %22
  call void (ptr, i32, ptr, ...) @av_log(ptr noundef null, i32 noundef 0, ptr noundef @.str.10, ptr noundef @.str.14, ptr noundef @.str.15, i32 noundef 150)
  call void @abort() #10
  unreachable

31:                                               ; preds = %22
  br label %32

32:                                               ; preds = %31
  %33 = load ptr, ptr %2, align 8, !tbaa !82
  %34 = getelementptr inbounds nuw %struct.PutBitContext, ptr %33, i32 0, i32 0
  %35 = load i32, ptr %34, align 8, !tbaa !90
  %36 = lshr i32 %35, 24
  %37 = trunc i32 %36 to i8
  %38 = load ptr, ptr %2, align 8, !tbaa !82
  %39 = getelementptr inbounds nuw %struct.PutBitContext, ptr %38, i32 0, i32 3
  %40 = load ptr, ptr %39, align 8, !tbaa !88
  %41 = getelementptr inbounds nuw i8, ptr %40, i32 1
  store ptr %41, ptr %39, align 8, !tbaa !88
  store i8 %37, ptr %40, align 1, !tbaa !91
  %42 = load ptr, ptr %2, align 8, !tbaa !82
  %43 = getelementptr inbounds nuw %struct.PutBitContext, ptr %42, i32 0, i32 0
  %44 = load i32, ptr %43, align 8, !tbaa !90
  %45 = shl i32 %44, 8
  store i32 %45, ptr %43, align 8, !tbaa !90
  %46 = load ptr, ptr %2, align 8, !tbaa !82
  %47 = getelementptr inbounds nuw %struct.PutBitContext, ptr %46, i32 0, i32 1
  %48 = load i32, ptr %47, align 4, !tbaa !89
  %49 = add nsw i32 %48, 8
  store i32 %49, ptr %47, align 4, !tbaa !89
  br label %16, !llvm.loop !92

50:                                               ; preds = %16
  %51 = load ptr, ptr %2, align 8, !tbaa !82
  %52 = getelementptr inbounds nuw %struct.PutBitContext, ptr %51, i32 0, i32 1
  store i32 32, ptr %52, align 4, !tbaa !89
  %53 = load ptr, ptr %2, align 8, !tbaa !82
  %54 = getelementptr inbounds nuw %struct.PutBitContext, ptr %53, i32 0, i32 0
  store i32 0, ptr %54, align 8, !tbaa !90
  ret void
}

; Function Attrs: inlinehint nounwind uwtable
define internal void @put_bits(ptr noundef %0, i32 noundef %1, i32 noundef %2) #5 {
  %4 = alloca ptr, align 8
  %5 = alloca i32, align 4
  %6 = alloca i32, align 4
  store ptr %0, ptr %4, align 8, !tbaa !82
  store i32 %1, ptr %5, align 4, !tbaa !37
  store i32 %2, ptr %6, align 4, !tbaa !37
  %7 = load ptr, ptr %4, align 8, !tbaa !82
  %8 = load i32, ptr %5, align 4, !tbaa !37
  %9 = load i32, ptr %6, align 4, !tbaa !37
  call void @put_bits_no_assert(ptr noundef %7, i32 noundef %8, i32 noundef %9)
  ret void
}

; Function Attrs: inlinehint nounwind uwtable
define internal void @max_nbits(ptr noundef %0, i32 noundef %1) #5 {
  %3 = alloca ptr, align 8
  %4 = alloca i32, align 4
  %5 = alloca i32, align 4
  %6 = alloca i32, align 4
  store ptr %0, ptr %3, align 8, !tbaa !93
  store i32 %1, ptr %4, align 4, !tbaa !37
  call void @llvm.lifetime.start.p0(i64 4, ptr %5) #8
  %7 = load i32, ptr %4, align 4, !tbaa !37
  %8 = icmp eq i32 %7, 0
  br i1 %8, label %9, label %10

9:                                                ; preds = %2
  store i32 1, ptr %6, align 4
  br label %37

10:                                               ; preds = %2
  %11 = load i32, ptr %4, align 4, !tbaa !37
  %12 = icmp sge i32 %11, 0
  br i1 %12, label %13, label %15

13:                                               ; preds = %10
  %14 = load i32, ptr %4, align 4, !tbaa !37
  br label %18

15:                                               ; preds = %10
  %16 = load i32, ptr %4, align 4, !tbaa !37
  %17 = sub nsw i32 0, %16
  br label %18

18:                                               ; preds = %15, %13
  %19 = phi i32 [ %14, %13 ], [ %17, %15 ]
  store i32 %19, ptr %4, align 4, !tbaa !37
  store i32 1, ptr %5, align 4, !tbaa !37
  br label %20

20:                                               ; preds = %23, %18
  %21 = load i32, ptr %4, align 4, !tbaa !37
  %22 = icmp ne i32 %21, 0
  br i1 %22, label %23, label %28

23:                                               ; preds = %20
  %24 = load i32, ptr %5, align 4, !tbaa !37
  %25 = add nsw i32 %24, 1
  store i32 %25, ptr %5, align 4, !tbaa !37
  %26 = load i32, ptr %4, align 4, !tbaa !37
  %27 = ashr i32 %26, 1
  store i32 %27, ptr %4, align 4, !tbaa !37
  br label %20, !llvm.loop !95

28:                                               ; preds = %20
  %29 = load i32, ptr %5, align 4, !tbaa !37
  %30 = load ptr, ptr %3, align 8, !tbaa !93
  %31 = load i32, ptr %30, align 4, !tbaa !37
  %32 = icmp sgt i32 %29, %31
  br i1 %32, label %33, label %36

33:                                               ; preds = %28
  %34 = load i32, ptr %5, align 4, !tbaa !37
  %35 = load ptr, ptr %3, align 8, !tbaa !93
  store i32 %34, ptr %35, align 4, !tbaa !37
  br label %36

36:                                               ; preds = %33, %28
  store i32 0, ptr %6, align 4
  br label %37

37:                                               ; preds = %36, %9
  call void @llvm.lifetime.end.p0(i64 4, ptr %5) #8
  %38 = load i32, ptr %6, align 4
  switch i32 %38, label %40 [
    i32 0, label %39
    i32 1, label %39
  ]

39:                                               ; preds = %37, %37
  ret void

40:                                               ; preds = %37
  unreachable
}

; Function Attrs: inlinehint nounwind uwtable
define internal void @init_put_bits(ptr noundef %0, ptr noundef %1, i32 noundef %2) #5 {
  %4 = alloca ptr, align 8
  %5 = alloca ptr, align 8
  %6 = alloca i32, align 4
  store ptr %0, ptr %4, align 8, !tbaa !82
  store ptr %1, ptr %5, align 8, !tbaa !84
  store i32 %2, ptr %6, align 4, !tbaa !37
  %7 = load i32, ptr %6, align 4, !tbaa !37
  %8 = icmp slt i32 %7, 0
  br i1 %8, label %9, label %10

9:                                                ; preds = %3
  store i32 0, ptr %6, align 4, !tbaa !37
  store ptr null, ptr %5, align 8, !tbaa !84
  br label %10

10:                                               ; preds = %9, %3
  %11 = load ptr, ptr %5, align 8, !tbaa !84
  %12 = load ptr, ptr %4, align 8, !tbaa !82
  %13 = getelementptr inbounds nuw %struct.PutBitContext, ptr %12, i32 0, i32 2
  store ptr %11, ptr %13, align 8, !tbaa !85
  %14 = load ptr, ptr %4, align 8, !tbaa !82
  %15 = getelementptr inbounds nuw %struct.PutBitContext, ptr %14, i32 0, i32 2
  %16 = load ptr, ptr %15, align 8, !tbaa !85
  %17 = load i32, ptr %6, align 4, !tbaa !37
  %18 = sext i32 %17 to i64
  %19 = getelementptr inbounds i8, ptr %16, i64 %18
  %20 = load ptr, ptr %4, align 8, !tbaa !82
  %21 = getelementptr inbounds nuw %struct.PutBitContext, ptr %20, i32 0, i32 4
  store ptr %19, ptr %21, align 8, !tbaa !87
  %22 = load ptr, ptr %4, align 8, !tbaa !82
  %23 = getelementptr inbounds nuw %struct.PutBitContext, ptr %22, i32 0, i32 2
  %24 = load ptr, ptr %23, align 8, !tbaa !85
  %25 = load ptr, ptr %4, align 8, !tbaa !82
  %26 = getelementptr inbounds nuw %struct.PutBitContext, ptr %25, i32 0, i32 3
  store ptr %24, ptr %26, align 8, !tbaa !88
  %27 = load ptr, ptr %4, align 8, !tbaa !82
  %28 = getelementptr inbounds nuw %struct.PutBitContext, ptr %27, i32 0, i32 1
  store i32 32, ptr %28, align 4, !tbaa !89
  %29 = load ptr, ptr %4, align 8, !tbaa !82
  %30 = getelementptr inbounds nuw %struct.PutBitContext, ptr %29, i32 0, i32 0
  store i32 0, ptr %30, align 8, !tbaa !90
  ret void
}

; Function Attrs: nounwind uwtable
define internal void @put_swf_rect(ptr noundef %0, i32 noundef %1, i32 noundef %2, i32 noundef %3, i32 noundef %4) #0 {
  %6 = alloca ptr, align 8
  %7 = alloca i32, align 4
  %8 = alloca i32, align 4
  %9 = alloca i32, align 4
  %10 = alloca i32, align 4
  %11 = alloca %struct.PutBitContext, align 8
  %12 = alloca [256 x i8], align 16
  %13 = alloca i32, align 4
  %14 = alloca i32, align 4
  store ptr %0, ptr %6, align 8, !tbaa !29
  store i32 %1, ptr %7, align 4, !tbaa !37
  store i32 %2, ptr %8, align 4, !tbaa !37
  store i32 %3, ptr %9, align 4, !tbaa !37
  store i32 %4, ptr %10, align 4, !tbaa !37
  call void @llvm.lifetime.start.p0(i64 32, ptr %11) #8
  call void @llvm.lifetime.start.p0(i64 256, ptr %12) #8
  call void @llvm.lifetime.start.p0(i64 4, ptr %13) #8
  call void @llvm.lifetime.start.p0(i64 4, ptr %14) #8
  %15 = getelementptr inbounds [256 x i8], ptr %12, i64 0, i64 0
  call void @init_put_bits(ptr noundef %11, ptr noundef %15, i32 noundef 256)
  store i32 0, ptr %13, align 4, !tbaa !37
  %16 = load i32, ptr %7, align 4, !tbaa !37
  call void @max_nbits(ptr noundef %13, i32 noundef %16)
  %17 = load i32, ptr %8, align 4, !tbaa !37
  call void @max_nbits(ptr noundef %13, i32 noundef %17)
  %18 = load i32, ptr %9, align 4, !tbaa !37
  call void @max_nbits(ptr noundef %13, i32 noundef %18)
  %19 = load i32, ptr %10, align 4, !tbaa !37
  call void @max_nbits(ptr noundef %13, i32 noundef %19)
  %20 = load i32, ptr %13, align 4, !tbaa !37
  %21 = shl i32 1, %20
  %22 = sub nsw i32 %21, 1
  store i32 %22, ptr %14, align 4, !tbaa !37
  %23 = load i32, ptr %13, align 4, !tbaa !37
  call void @put_bits(ptr noundef %11, i32 noundef 5, i32 noundef %23)
  %24 = load i32, ptr %13, align 4, !tbaa !37
  %25 = load i32, ptr %7, align 4, !tbaa !37
  %26 = load i32, ptr %14, align 4, !tbaa !37
  %27 = and i32 %25, %26
  call void @put_bits(ptr noundef %11, i32 noundef %24, i32 noundef %27)
  %28 = load i32, ptr %13, align 4, !tbaa !37
  %29 = load i32, ptr %8, align 4, !tbaa !37
  %30 = load i32, ptr %14, align 4, !tbaa !37
  %31 = and i32 %29, %30
  call void @put_bits(ptr noundef %11, i32 noundef %28, i32 noundef %31)
  %32 = load i32, ptr %13, align 4, !tbaa !37
  %33 = load i32, ptr %9, align 4, !tbaa !37
  %34 = load i32, ptr %14, align 4, !tbaa !37
  %35 = and i32 %33, %34
  call void @put_bits(ptr noundef %11, i32 noundef %32, i32 noundef %35)
  %36 = load i32, ptr %13, align 4, !tbaa !37
  %37 = load i32, ptr %10, align 4, !tbaa !37
  %38 = load i32, ptr %14, align 4, !tbaa !37
  %39 = and i32 %37, %38
  call void @put_bits(ptr noundef %11, i32 noundef %36, i32 noundef %39)
  call void @flush_put_bits(ptr noundef %11)
  %40 = load ptr, ptr %6, align 8, !tbaa !29
  %41 = getelementptr inbounds [256 x i8], ptr %12, i64 0, i64 0
  %42 = call i32 @put_bytes_output(ptr noundef %11)
  call void @avio_write(ptr noundef %40, ptr noundef %41, i32 noundef %42)
  call void @llvm.lifetime.end.p0(i64 4, ptr %14) #8
  call void @llvm.lifetime.end.p0(i64 4, ptr %13) #8
  call void @llvm.lifetime.end.p0(i64 256, ptr %12) #8
  call void @llvm.lifetime.end.p0(i64 32, ptr %11) #8
  ret void
}