; Function Attrs: nounwind uwtable
define internal fastcc void @put_swf_rect(ptr noundef %0, i32 noundef %1, i32 noundef %2) unnamed_addr #0 {
  %4 = alloca [256 x i8], align 16
  call void @llvm.lifetime.start.p0(i64 256, ptr nonnull %4) #6
  %5 = getelementptr inbounds nuw i8, ptr %4, i64 256
  %6 = icmp eq i32 %1, 0
  %.sroa.36.3.idx.sroa.gep77 = getelementptr inbounds nuw i8, ptr %4, i64 4
  br i1 %6, label %max_nbits.exit, label %7

7:                                                ; preds = %3
  %8 = tail call i32 @llvm.abs.i32(i32 %1, i1 true)
  br label %9

9:                                                ; preds = %9, %7
  %.013.i = phi i32 [ 1, %7 ], [ %10, %9 ]
  %.01012.i = phi i32 [ %8, %7 ], [ %11, %9 ]
  %10 = add nuw nsw i32 %.013.i, 1
  %11 = lshr i32 %.01012.i, 1
  %.not.i = icmp samesign ult i32 %.01012.i, 2
  br i1 %.not.i, label %max_nbits.exit, label %9, !llvm.loop !80

max_nbits.exit:                                   ; preds = %9, %3
  %.0 = phi i32 [ 0, %3 ], [ %10, %9 ]
  %12 = icmp eq i32 %2, 0
  br i1 %12, label %put_bits.exit, label %13

13:                                               ; preds = %max_nbits.exit
  %14 = tail call i32 @llvm.abs.i32(i32 %2, i1 true)
  br label %15

15:                                               ; preds = %15, %13
  %.013.i13 = phi i32 [ 1, %13 ], [ %16, %15 ]
  %.01012.i14 = phi i32 [ %14, %13 ], [ %17, %15 ]
  %16 = add nuw nsw i32 %.013.i13, 1
  %17 = lshr i32 %.01012.i14, 1
  %.not.i15 = icmp samesign ult i32 %.01012.i14, 2
  br i1 %.not.i15, label %18, label %15, !llvm.loop !80

18:                                               ; preds = %15
  %.not14.i16 = icmp slt i32 %.013.i13, %.0
  %spec.select = select i1 %.not14.i16, i32 %.0, i32 %16
  br label %put_bits.exit

put_bits.exit:                                    ; preds = %18, %max_nbits.exit
  %.1 = phi i32 [ %.0, %max_nbits.exit ], [ %spec.select, %18 ]
  %notmask = shl nsw i32 -1, %.1
  %19 = xor i32 %notmask, -1
  %20 = icmp slt i32 %.1, 27
  br i1 %20, label %21, label %23

21:                                               ; preds = %put_bits.exit
  %22 = shl i32 %.1, %.1
  br label %put_bits.exit21

23:                                               ; preds = %put_bits.exit
  %24 = shl i32 %.1, 3
  %25 = and i32 %24, 248
  store i32 %25, ptr %4, align 16, !tbaa !70
  br label %put_bits.exit21

put_bits.exit21:                                  ; preds = %21, %23
  %.sroa.36.3.idx.sroa.phi = phi ptr [ %4, %21 ], [ %.sroa.36.3.idx.sroa.gep77, %23 ]
  %.sroa.36.3.idx = phi i64 [ 0, %21 ], [ 4, %23 ]
  %.026.i.i19 = phi i32 [ %22, %21 ], [ 0, %23 ]
  %.pn = phi i32 [ 27, %21 ], [ 59, %23 ]
  %.0.i.i20 = sub nsw i32 %.pn, %.1
  %26 = and i32 %1, %19
  %27 = icmp slt i32 %.1, %.0.i.i20
  br i1 %27, label %28, label %32

28:                                               ; preds = %put_bits.exit21
  %29 = shl i32 %.026.i.i19, %.1
  %30 = or i32 %29, %26
  %31 = sub nsw i32 %.0.i.i20, %.1
  br label %put_bits.exit25

32:                                               ; preds = %put_bits.exit21
  %33 = ptrtoint ptr %5 to i64
  %34 = ptrtoint ptr %.sroa.36.3.idx.sroa.phi to i64
  %35 = sub i64 %33, %34
  %36 = icmp ugt i64 %35, 3
  br i1 %36, label %37, label %43

37:                                               ; preds = %32
  %38 = shl i32 %.026.i.i19, %.0.i.i20
  %39 = sub nsw i32 %.1, %.0.i.i20
  %40 = lshr i32 %26, %39
  %41 = or i32 %40, %38
  %42 = call i32 @llvm.bswap.i32(i32 %41)
  store i32 %42, ptr %.sroa.36.3.idx.sroa.phi, align 1, !tbaa !70
  %.sroa.36.3.add = add nuw nsw i64 %.sroa.36.3.idx, 4
  br label %44

43:                                               ; preds = %32
  call void (ptr, i32, ptr, ...) @av_log(ptr noundef null, i32 noundef 16, ptr noundef nonnull @.str.13) #6
  br label %44

44:                                               ; preds = %43, %37
  %.sroa.36.4.idx = phi i64 [ %.sroa.36.3.add, %37 ], [ %.sroa.36.3.idx, %43 ]
  %reass.sub = sub i32 %.0.i.i20, %.1
  %45 = add i32 %reass.sub, 32
  br label %put_bits.exit25

put_bits.exit25:                                  ; preds = %28, %44
  %.sroa.36.5.idx = phi i64 [ %.sroa.36.3.idx, %28 ], [ %.sroa.36.4.idx, %44 ]
  %.026.i.i23 = phi i32 [ %30, %28 ], [ %26, %44 ]
  %.0.i.i24 = phi i32 [ %31, %28 ], [ %45, %44 ]
  %46 = icmp slt i32 %.1, %.0.i.i24
  br i1 %46, label %47, label %50

47:                                               ; preds = %put_bits.exit25
  %48 = shl i32 %.026.i.i23, %.1
  %49 = sub nsw i32 %.0.i.i24, %.1
  br label %put_bits.exit29

50:                                               ; preds = %put_bits.exit25
  %.sroa.36.5.ptr = getelementptr inbounds nuw i8, ptr %4, i64 %.sroa.36.5.idx
  %51 = shl i32 %.026.i.i23, %.0.i.i24
  %52 = call i32 @llvm.bswap.i32(i32 %51)
  store i32 %52, ptr %.sroa.36.5.ptr, align 1, !tbaa !70
  %.sroa.36.5.add = add nuw nsw i64 %.sroa.36.5.idx, 4
  %reass.sub70 = sub i32 %.0.i.i24, %.1
  %53 = add i32 %reass.sub70, 32
  br label %put_bits.exit29

put_bits.exit29:                                  ; preds = %47, %50
  %.sroa.36.7.idx = phi i64 [ %.sroa.36.5.idx, %47 ], [ %.sroa.36.5.add, %50 ]
  %.026.i.i27 = phi i32 [ %48, %47 ], [ 0, %50 ]
  %.0.i.i28 = phi i32 [ %49, %47 ], [ %53, %50 ]
  %54 = and i32 %2, %19
  %55 = icmp slt i32 %.1, %.0.i.i28
  br i1 %55, label %56, label %60

56:                                               ; preds = %put_bits.exit29
  %57 = shl i32 %.026.i.i27, %.1
  %58 = or i32 %57, %54
  %59 = sub nsw i32 %.0.i.i28, %.1
  br label %put_bits.exit33

60:                                               ; preds = %put_bits.exit29
  %.sroa.36.7.ptr = getelementptr inbounds nuw i8, ptr %4, i64 %.sroa.36.7.idx
  %61 = shl i32 %.026.i.i27, %.0.i.i28
  %62 = sub nsw i32 %.1, %.0.i.i28
  %63 = lshr i32 %54, %62
  %64 = or i32 %63, %61
  %65 = call i32 @llvm.bswap.i32(i32 %64)
  store i32 %65, ptr %.sroa.36.7.ptr, align 1, !tbaa !70
  %.sroa.36.7.add = add nuw nsw i64 %.sroa.36.7.idx, 4
  %reass.sub71 = sub i32 %.0.i.i28, %.1
  %66 = add i32 %reass.sub71, 32
  br label %put_bits.exit33

put_bits.exit33:                                  ; preds = %56, %60
  %.sroa.36.9.idx = phi i64 [ %.sroa.36.7.idx, %56 ], [ %.sroa.36.7.add, %60 ]
  %.026.i.i31 = phi i32 [ %58, %56 ], [ %54, %60 ]
  %.0.i.i32 = phi i32 [ %59, %56 ], [ %66, %60 ]
  %67 = icmp slt i32 %.0.i.i32, 32
  br i1 %67, label %.lr.ph.i, label %flush_put_bits.exit

.lr.ph.i:                                         ; preds = %put_bits.exit33
  %68 = shl i32 %.026.i.i31, %.0.i.i32
  br label %69

69:                                               ; preds = %71, %.lr.ph.i
  %.sroa.36.10.idx = phi i64 [ %.sroa.36.9.idx, %.lr.ph.i ], [ %.sroa.36.10.add, %71 ]
  %.sroa.19.0 = phi i32 [ %.0.i.i32, %.lr.ph.i ], [ %75, %71 ]
  %.sroa.0.0 = phi i32 [ %68, %.lr.ph.i ], [ %74, %71 ]
  %exitcond.not = icmp eq i64 %.sroa.36.10.idx, 256
  br i1 %exitcond.not, label %70, label %71

70:                                               ; preds = %69
  call void (ptr, i32, ptr, ...) @av_log(ptr noundef null, i32 noundef 0, ptr noundef nonnull @.str.10, ptr noundef nonnull @.str.14, ptr noundef nonnull @.str.15, i32 noundef 150) #6
  call void @abort() #8
  unreachable

71:                                               ; preds = %69
  %.sroa.36.10.ptr = getelementptr inbounds nuw i8, ptr %4, i64 %.sroa.36.10.idx
  %72 = lshr i32 %.sroa.0.0, 24
  %73 = trunc nuw i32 %72 to i8
  %.sroa.36.10.add = add nuw nsw i64 %.sroa.36.10.idx, 1
  store i8 %73, ptr %.sroa.36.10.ptr, align 1, !tbaa !70
  %74 = shl i32 %.sroa.0.0, 8
  %75 = add nsw i32 %.sroa.19.0, 8
  %76 = icmp slt i32 %.sroa.19.0, 24
  br i1 %76, label %69, label %flush_put_bits.exit, !llvm.loop !71

flush_put_bits.exit:                              ; preds = %71, %put_bits.exit33
  %.sroa.36.9.idx.pn = phi i64 [ %.sroa.36.9.idx, %put_bits.exit33 ], [ %.sroa.36.10.add, %71 ]
  %77 = trunc i64 %.sroa.36.9.idx.pn to i32
  call void @avio_write(ptr noundef %0, ptr noundef nonnull %4, i32 noundef %77) #6
  call void @llvm.lifetime.end.p0(i64 256, ptr nonnull %4) #6
  ret void
}